; Function Attrs: null_pointer_is_valid sspstrong uwtable
define internal void @gmr1_rr_msg_chan_mode_modify(ptr noundef %0, ptr noundef %1, ptr noundef %2, i32 noundef %3, i32 noundef %4) #1 {
  %6 = icmp sgt i32 %4, 0
  br i1 %6, label %7, label %13

7:                                                ; preds = %5
  %8 = tail call zeroext i16 @elem_v(ptr noundef %0, ptr noundef %1, ptr noundef %2, i32 noundef 15, i32 noundef 0, i32 noundef %3, ptr noundef null)
  %.not = icmp eq i16 %8, 0
  br i1 %.not, label %13, label %9

9:                                                ; preds = %7
  %10 = zext i16 %8 to i32
  %11 = add i32 %3, %10
  %12 = sub nsw i32 %4, %10
  br label %16

13:                                               ; preds = %7, %5
  %14 = tail call ptr @get_gsm_a_msg_string(i32 noundef 15, i32 noundef 0)
  %15 = tail call ptr (ptr, ptr, ptr, ptr, i32, i32, ptr, ...) @proto_tree_add_expert_format(ptr noundef %1, ptr noundef %2, ptr noundef nonnull @ei_gmr1_missing_mandatory_element, ptr noundef %0, i32 noundef %3, i32 noundef 0, ptr noundef nonnull @.str.273, ptr noundef %14, ptr noundef nonnull @.str.274)
  br label %16

16:                                               ; preds = %13, %9
  %.027 = phi i32 [ %11, %9 ], [ %3, %13 ]
  %.0 = phi i32 [ %12, %9 ], [ %4, %13 ]
  %17 = icmp sgt i32 %.0, 0
  br i1 %17, label %18, label %20

18:                                               ; preds = %16
  %19 = tail call zeroext i16 @elem_v(ptr noundef %0, ptr noundef %1, ptr noundef %2, i32 noundef 15, i32 noundef 1, i32 noundef %.027, ptr noundef null)
  %.not30 = icmp eq i16 %19, 0
  br i1 %.not30, label %20, label %23

20:                                               ; preds = %18, %16
  %21 = tail call ptr @get_gsm_a_msg_string(i32 noundef 15, i32 noundef 1)
  %22 = tail call ptr (ptr, ptr, ptr, ptr, i32, i32, ptr, ...) @proto_tree_add_expert_format(ptr noundef %1, ptr noundef %2, ptr noundef nonnull @ei_gmr1_missing_mandatory_element, ptr noundef %0, i32 noundef %.027, i32 noundef 0, ptr noundef nonnull @.str.273, ptr noundef %21, ptr noundef nonnull @.str.274)
  br label %23

23:                                               ; preds = %18, %20
  ret void
}